; Function Attrs: mustprogress uwtable
define hidden void @_ZN4LIEF12MemoryStreamC2Em(ptr noundef nonnull align 8 dereferenceable(48) %0, i64 noundef %1) unnamed_addr #5 align 2 personality ptr @__gxx_personality_v0 {
  %3 = alloca %"struct.spdlog::source_loc", align 8
  %4 = alloca i64, align 8
  store i64 %1, ptr %4, align 8
  tail call void @_ZN4LIEF12BinaryStreamC2Ev(ptr noundef nonnull align 8 dereferenceable(24) %0)
  store ptr getelementptr inbounds ({ [15 x ptr] }, ptr @_ZTVN4LIEF12MemoryStreamE, i64 0, i32 0, i64 2), ptr %0, align 8
  %5 = getelementptr inbounds i8, ptr %0, i64 24
  store i64 %1, ptr %5, align 8
  %6 = getelementptr inbounds i8, ptr %0, i64 32
  store i64 6442450944, ptr %6, align 8
  %7 = getelementptr inbounds i8, ptr %0, i64 40
  store ptr null, ptr %7, align 8
  %8 = invoke noundef nonnull align 8 dereferenceable(16) ptr @_ZN4LIEF7logging6Logger8instanceEv()
          to label %.noexc unwind label %12

.noexc:                                           ; preds = %2
  %9 = load ptr, ptr %8, align 8
  call void @llvm.lifetime.start.p0(i64 24, ptr nonnull %3)
  call void @llvm.memset.p0.i64(ptr noundef nonnull align 8 dereferenceable(24) %3, i8 0, i64 24, i1 false)
  invoke void @_ZN6spdlog6logger4log_IJRKmEEEvNS_10source_locENS_5level10level_enumEN3fmt2v917basic_string_viewIcEEDpOT_(ptr noundef nonnull align 8 dereferenceable(208) %9, ptr noundef nonnull byval(%"struct.spdlog::source_loc") align 8 %3, i32 noundef 1, ptr nonnull @.str, i64 30, ptr noundef nonnull align 8 dereferenceable(8) %4)
          to label %10 unwind label %12

10:                                               ; preds = %.noexc
  call void @llvm.lifetime.end.p0(i64 24, ptr nonnull %3)
  %11 = getelementptr inbounds i8, ptr %0, i64 20
  store i32 2, ptr %11, align 4
  ret void

12:                                               ; preds = %.noexc, %2
  %13 = landingpad { ptr, i32 }
          cleanup
  call void @_ZN4LIEF12BinaryStreamD2Ev(ptr noundef nonnull align 8 dereferenceable(24) %0) #21
  resume { ptr, i32 } %13
}